(lp0
S'poi'
p1
aS'salary'
p2
aS'total_payments'
p3
aS'bonus'
p4
aS'deferred_income'
p5
aS'total_stock_value'
p6
aS'expenses'
p7
aS'exercised_stock_options'
p8
aS'long_term_incentive'
p9
aS'restricted_stock'
p10
aS'director_fees'
p11
aS'from_poi_to_this_person'
p12
aS'from_this_person_to_poi'
p13
aS'shared_receipt_with_poi'
p14
aS'income'
p15
aS'contact_poi'
p16
a.